; Function Attrs: nofree norecurse nosync nounwind memory(readwrite, inaccessiblemem: none) uwtable
define void @Extra_BitMatrixOrTwo(ptr noundef readonly captures(none) %0, i32 noundef %1, i32 noundef %2) local_unnamed_addr #9 {
  %4 = getelementptr inbounds nuw i8, ptr %0, i64 12
  %5 = load i32, ptr %4, align 4
  %6 = icmp sgt i32 %5, 0
  br i1 %6, label %.lr.ph, label %._crit_edge

.lr.ph:                                           ; preds = %3
  %7 = sext i32 %1 to i64
  %8 = sext i32 %2 to i64
  br label %9

9:                                                ; preds = %.lr.ph, %9
  %indvars.iv = phi i64 [ 0, %.lr.ph ], [ %indvars.iv.next, %9 ]
  %10 = load ptr, ptr %0, align 8
  %11 = getelementptr inbounds ptr, ptr %10, i64 %7
  %12 = load ptr, ptr %11, align 8
  %13 = getelementptr inbounds nuw i32, ptr %12, i64 %indvars.iv
  %14 = load i32, ptr %13, align 4
  %15 = getelementptr inbounds ptr, ptr %10, i64 %8
  %16 = load ptr, ptr %15, align 8
  %17 = getelementptr inbounds nuw i32, ptr %16, i64 %indvars.iv
  %18 = load i32, ptr %17, align 4
  %19 = or i32 %18, %14
  store i32 %19, ptr %17, align 4
  %20 = load ptr, ptr %0, align 8
  %21 = getelementptr inbounds ptr, ptr %20, i64 %7
  %22 = load ptr, ptr %21, align 8
  %23 = getelementptr inbounds nuw i32, ptr %22, i64 %indvars.iv
  store i32 %19, ptr %23, align 4
  %indvars.iv.next = add nuw nsw i64 %indvars.iv, 1
  %24 = load i32, ptr %4, align 4
  %25 = sext i32 %24 to i64
  %26 = icmp slt i64 %indvars.iv.next, %25
  br i1 %26, label %9, label %._crit_edge, !llvm.loop !10

._crit_edge:                                      ; preds = %9, %3
  ret void
}